; Function Attrs: nounwind uwtable
define ptr @l_Lean_Meta_mkExpectedPropHint(ptr noundef %0, ptr noundef %1) local_unnamed_addr #0 {
  %3 = load ptr, ptr @l_Lean_levelZero, align 8, !tbaa !10
  tail call void @lean_inc_heartbeat() #5
  %4 = tail call noalias ptr @mi_malloc_small(i64 noundef 24) #5
  %5 = icmp eq ptr %4, null
  br i1 %5, label %6, label %l_Lean_Meta_mkExpectedTypeHintCore.exit

6:                                                ; preds = %2
  tail call void @lean_internal_panic_out_of_memory() #6
  unreachable

l_Lean_Meta_mkExpectedTypeHintCore.exit:          ; preds = %2
  %7 = getelementptr inbounds nuw i8, ptr %4, i64 4
  store i32 1, ptr %4, align 4, !tbaa !4
  store i32 16908312, ptr %7, align 4
  %8 = getelementptr inbounds nuw i8, ptr %4, i64 8
  store ptr %3, ptr %8, align 8, !tbaa !10
  %9 = getelementptr inbounds nuw i8, ptr %4, i64 16
  store ptr inttoptr (i64 1 to ptr), ptr %9, align 8, !tbaa !10
  %10 = load ptr, ptr @l_Lean_Meta_mkId___closed__2, align 8, !tbaa !10
  %11 = tail call ptr @l_Lean_Expr_const___override(ptr noundef %10, ptr noundef nonnull %4) #5
  %12 = tail call ptr @l_Lean_mkAppB(ptr noundef %11, ptr noundef %1, ptr noundef %0) #5
  ret ptr %12
}